target datalayout = "e-m:e-p270:32:32-p271:32:32-p272:64:64-i64:64-i128:128-f80:128-n8:16:32:64-S128"
target triple = "x86_64-pc-linux-gnu"

%"struct.vcpkg::MessageSink" = type { ptr }
%"struct.vcpkg::TeeSink" = type { %"struct.vcpkg::MessageSink", ptr, ptr }

; Function Attrs: mustprogress uwtable
define dso_local void @_ZN5vcpkg7TeeSink7printlnERKNS_11MessageLineE(ptr noundef nonnull align 8 dereferenceable(24) %0, ptr noundef nonnull align 8 dereferenceable(24) %1) unnamed_addr #0 align 2 {
  %3 = alloca ptr, align 8
  %4 = alloca ptr, align 8
  store ptr %0, ptr %3, align 8, !tbaa !63
  store ptr %1, ptr %4, align 8, !tbaa !4
  %5 = load ptr, ptr %3, align 8
  %6 = getelementptr inbounds nuw %"struct.vcpkg::TeeSink", ptr %5, i32 0, i32 1
  %7 = load ptr, ptr %6, align 8, !tbaa !65
  %8 = load ptr, ptr %4, align 8, !tbaa !4
  %9 = load ptr, ptr %7, align 8, !tbaa !42
  %10 = getelementptr inbounds ptr, ptr %9, i64 0
  %11 = load ptr, ptr %10, align 8
  call void %11(ptr noundef nonnull align 8 dereferenceable(8) %7, ptr noundef nonnull align 8 dereferenceable(24) %8)
  %12 = getelementptr inbounds nuw %"struct.vcpkg::TeeSink", ptr %5, i32 0, i32 2
  %13 = load ptr, ptr %12, align 8, !tbaa !68
  %14 = load ptr, ptr %4, align 8, !tbaa !4
  %15 = load ptr, ptr %13, align 8, !tbaa !42
  %16 = getelementptr inbounds ptr, ptr %15, i64 0
  %17 = load ptr, ptr %16, align 8
  call void %17(ptr noundef nonnull align 8 dereferenceable(8) %13, ptr noundef nonnull align 8 dereferenceable(24) %14)
  ret void
}